; Function Attrs: mustprogress nofree norecurse nosync nounwind willreturn memory(argmem: readwrite) uwtable
define dso_local void @AdjustTimeForTypmod(ptr noundef captures(none) %0, i32 noundef %1) local_unnamed_addr #4 {
  %or.cond = icmp ult i32 %1, 7
  br i1 %or.cond, label %3, label %18

3:                                                ; preds = %2
  %4 = load i64, ptr %0, align 8
  %5 = icmp sgt i64 %4, -1
  %6 = zext nneg i32 %1 to i64
  %7 = getelementptr inbounds nuw [7 x i64], ptr @AdjustTimeForTypmod.TimeOffsets, i64 0, i64 %6
  %8 = load i64, ptr %7, align 8
  %9 = getelementptr inbounds nuw [7 x i64], ptr @AdjustTimeForTypmod.TimeScales, i64 0, i64 %6
  %10 = load i64, ptr %9, align 8
  br i1 %5, label %11, label %15

11:                                               ; preds = %3
  %12 = add i64 %8, %4
  %.fr14 = freeze i64 %12
  %13 = srem i64 %.fr14, %10
  %14 = sub nsw i64 %.fr14, %13
  br label %.sink.split

15:                                               ; preds = %3
  %16 = sub i64 %8, %4
  %.fr = freeze i64 %16
  %17 = srem i64 %.fr, %10
  %.neg = sub i64 %17, %.fr
  br label %.sink.split

.sink.split:                                      ; preds = %15, %11
  %.sink = phi i64 [ %14, %11 ], [ %.neg, %15 ]
  store i64 %.sink, ptr %0, align 8
  br label %18

18:                                               ; preds = %.sink.split, %2
  ret void
}